target datalayout = "e-m:e-p270:32:32-p271:32:32-p272:64:64-i64:64-i128:128-f80:128-n8:16:32:64-S128"
target triple = "x86_64-pc-linux-gnu"

; Function Attrs: mustprogress nounwind uwtable
define void @_Z5rtrimPc(ptr noundef %0) #1 {
  %2 = alloca ptr, align 8
  %3 = alloca i32, align 4
  store ptr %0, ptr %2, align 8, !tbaa !4
  %4 = load ptr, ptr %2, align 8, !tbaa !4
  %5 = icmp eq ptr null, %4
  br i1 %5, label %6, label %7

6:                                                ; preds = %1
  br label %43

7:                                                ; preds = %1
  call void @llvm.lifetime.start.p0(i64 4, ptr %3) #13
  %8 = load ptr, ptr %2, align 8, !tbaa !4
  %9 = call i64 @strlen(ptr noundef %8) #14
  %10 = sub i64 %9, 1
  %11 = trunc i64 %10 to i32
  store i32 %11, ptr %3, align 4, !tbaa !9
  br label %12

12:                                               ; preds = %35, %7
  %13 = load i32, ptr %3, align 4, !tbaa !9
  %14 = icmp sge i32 %13, 0
  br i1 %14, label %15, label %33

15:                                               ; preds = %12
  %16 = load ptr, ptr %2, align 8, !tbaa !4
  %17 = load i32, ptr %3, align 4, !tbaa !9
  %18 = sext i32 %17 to i64
  %19 = getelementptr inbounds i8, ptr %16, i64 %18
  %20 = load i8, ptr %19, align 1, !tbaa !11
  %21 = sext i8 %20 to i32
  %22 = icmp eq i32 %21, 32
  br i1 %22, label %31, label %23

23:                                               ; preds = %15
  %24 = load ptr, ptr %2, align 8, !tbaa !4
  %25 = load i32, ptr %3, align 4, !tbaa !9
  %26 = sext i32 %25 to i64
  %27 = getelementptr inbounds i8, ptr %24, i64 %26
  %28 = load i8, ptr %27, align 1, !tbaa !11
  %29 = sext i8 %28 to i32
  %30 = icmp eq i32 %29, 9
  br label %31

31:                                               ; preds = %23, %15
  %32 = phi i1 [ true, %15 ], [ %30, %23 ]
  br label %33

33:                                               ; preds = %31, %12
  %34 = phi i1 [ false, %12 ], [ %32, %31 ]
  br i1 %34, label %35, label %42

35:                                               ; preds = %33
  %36 = load ptr, ptr %2, align 8, !tbaa !4
  %37 = load i32, ptr %3, align 4, !tbaa !9
  %38 = sext i32 %37 to i64
  %39 = getelementptr inbounds i8, ptr %36, i64 %38
  store i8 0, ptr %39, align 1, !tbaa !11
  %40 = load i32, ptr %3, align 4, !tbaa !9
  %41 = add nsw i32 %40, -1
  store i32 %41, ptr %3, align 4, !tbaa !9
  br label %12, !llvm.loop !12

42:                                               ; preds = %33
  call void @llvm.lifetime.end.p0(i64 4, ptr %3) #13
  br label %43

43:                                               ; preds = %42, %6
  ret void
}

; Function Attrs: mustprogress nounwind uwtable
define void @_Z5ltrimPc(ptr noundef %0) #1 {
  %2 = alloca ptr, align 8
  %3 = alloca i32, align 4
  %4 = alloca i32, align 4
  store ptr %0, ptr %2, align 8, !tbaa !4
  %5 = load ptr, ptr %2, align 8, !tbaa !4
  %6 = icmp eq ptr null, %5
  br i1 %6, label %7, label %8

7:                                                ; preds = %1
  br label %67

8:                                                ; preds = %1
  call void @llvm.lifetime.start.p0(i64 4, ptr %3) #13
  store i32 0, ptr %3, align 4, !tbaa !9
  br label %9

9:                                                ; preds = %28, %8
  %10 = load ptr, ptr %2, align 8, !tbaa !4
  %11 = load i32, ptr %3, align 4, !tbaa !9
  %12 = sext i32 %11 to i64
  %13 = getelementptr inbounds i8, ptr %10, i64 %12
  %14 = load i8, ptr %13, align 1, !tbaa !11
  %15 = sext i8 %14 to i32
  %16 = icmp ne i32 0, %15
  br i1 %16, label %17, label %26

17:                                               ; preds = %9
  %18 = load ptr, ptr %2, align 8, !tbaa !4
  %19 = load i32, ptr %3, align 4, !tbaa !9
  %20 = sext i32 %19 to i64
  %21 = getelementptr inbounds i8, ptr %18, i64 %20
  %22 = load i8, ptr %21, align 1, !tbaa !11
  %23 = sext i8 %22 to i32
  %24 = call i32 @isspace(i32 noundef %23) #14
  %25 = icmp ne i32 %24, 0
  br label %26

26:                                               ; preds = %17, %9
  %27 = phi i1 [ false, %9 ], [ %25, %17 ]
  br i1 %27, label %28, label %31

28:                                               ; preds = %26
  %29 = load i32, ptr %3, align 4, !tbaa !9
  %30 = add nsw i32 %29, 1
  store i32 %30, ptr %3, align 4, !tbaa !9
  br label %9, !llvm.loop !71

31:                                               ; preds = %26
  %32 = load i32, ptr %3, align 4, !tbaa !9
  %33 = icmp sgt i32 %32, 0
  br i1 %33, label %34, label %66

34:                                               ; preds = %31
  call void @llvm.lifetime.start.p0(i64 4, ptr %4) #13
  %35 = load i32, ptr %3, align 4, !tbaa !9
  store i32 %35, ptr %4, align 4, !tbaa !9
  br label %36

36:                                               ; preds = %56, %34
  %37 = load ptr, ptr %2, align 8, !tbaa !4
  %38 = load i32, ptr %4, align 4, !tbaa !9
  %39 = sext i32 %38 to i64
  %40 = getelementptr inbounds i8, ptr %37, i64 %39
  %41 = load i8, ptr %40, align 1, !tbaa !11
  %42 = sext i8 %41 to i32
  %43 = icmp ne i32 0, %42
  br i1 %43, label %44, label %59

44:                                               ; preds = %36
  %45 = load ptr, ptr %2, align 8, !tbaa !4
  %46 = load i32, ptr %4, align 4, !tbaa !9
  %47 = sext i32 %46 to i64
  %48 = getelementptr inbounds i8, ptr %45, i64 %47
  %49 = load i8, ptr %48, align 1, !tbaa !11
  %50 = load ptr, ptr %2, align 8, !tbaa !4
  %51 = load i32, ptr %4, align 4, !tbaa !9
  %52 = load i32, ptr %3, align 4, !tbaa !9
  %53 = sub nsw i32 %51, %52
  %54 = sext i32 %53 to i64
  %55 = getelementptr inbounds i8, ptr %50, i64 %54
  store i8 %49, ptr %55, align 1, !tbaa !11
  br label %56

56:                                               ; preds = %44
  %57 = load i32, ptr %4, align 4, !tbaa !9
  %58 = add nsw i32 %57, 1
  store i32 %58, ptr %4, align 4, !tbaa !9
  br label %36, !llvm.loop !72

59:                                               ; preds = %36
  %60 = load ptr, ptr %2, align 8, !tbaa !4
  %61 = load i32, ptr %4, align 4, !tbaa !9
  %62 = load i32, ptr %3, align 4, !tbaa !9
  %63 = sub nsw i32 %61, %62
  %64 = sext i32 %63 to i64
  %65 = getelementptr inbounds i8, ptr %60, i64 %64
  store i8 0, ptr %65, align 1, !tbaa !11
  call void @llvm.lifetime.end.p0(i64 4, ptr %4) #13
  br label %66

66:                                               ; preds = %59, %31
  call void @llvm.lifetime.end.p0(i64 4, ptr %3) #13
  br label %67

67:                                               ; preds = %66, %7
  ret void
}

; Function Attrs: mustprogress nounwind uwtable
define void @_Z4trimPc(ptr noundef %0) #1 {
  %2 = alloca ptr, align 8
  store ptr %0, ptr %2, align 8, !tbaa !4
  %3 = load ptr, ptr %2, align 8, !tbaa !4
  call void @_Z5ltrimPc(ptr noundef %3)
  %4 = load ptr, ptr %2, align 8, !tbaa !4
  call void @_Z5rtrimPc(ptr noundef %4)
  ret void
}