; Function Attrs: mustprogress nofree nounwind memory(read, argmem: readwrite) uwtable
define void @_Z4trimPc(ptr noundef %0) local_unnamed_addr #12 {
  %2 = icmp eq ptr %0, null
  br i1 %2, label %_Z5rtrimPc.exit, label %.preheader24.i

.preheader24.i:                                   ; preds = %1
  %3 = load i8, ptr %0, align 1, !tbaa !4
  %.not25.i = icmp eq i8 %3, 0
  br i1 %.not25.i, label %25, label %.lr.ph.i

.lr.ph.i:                                         ; preds = %.preheader24.i, %7
  %indvars.iv.i = phi i64 [ %indvars.iv.next.i, %7 ], [ 0, %.preheader24.i ]
  %4 = phi i8 [ %10, %7 ], [ %3, %.preheader24.i ]
  %.01826.i = phi i32 [ %8, %7 ], [ 0, %.preheader24.i ]
  %5 = sext i8 %4 to i32
  %6 = tail call i32 @isspace(i32 noundef %5) #24
  %.not21.i = icmp eq i32 %6, 0
  br i1 %.not21.i, label %.critedge.i, label %7

7:                                                ; preds = %.lr.ph.i
  %indvars.iv.next.i = add nuw nsw i64 %indvars.iv.i, 1
  %8 = add nuw nsw i32 %.01826.i, 1
  %9 = getelementptr inbounds nuw i8, ptr %0, i64 %indvars.iv.next.i
  %10 = load i8, ptr %9, align 1, !tbaa !4
  %.not.i = icmp eq i8 %10, 0
  br i1 %.not.i, label %.preheader.i, label %.lr.ph.i, !llvm.loop !21

.critedge.i:                                      ; preds = %.lr.ph.i
  %11 = trunc nuw nsw i64 %indvars.iv.i to i32
  %.not22.i = icmp eq i64 %indvars.iv.i, 0
  br i1 %.not22.i, label %25, label %.preheader.i

.preheader.i:                                     ; preds = %7, %.critedge.i
  %.018.lcssa40.i = phi i32 [ %11, %.critedge.i ], [ %8, %7 ]
  %12 = zext nneg i32 %.018.lcssa40.i to i64
  %13 = getelementptr inbounds nuw i8, ptr %0, i64 %12
  %14 = load i8, ptr %13, align 1, !tbaa !4
  %.not2329.i = icmp eq i8 %14, 0
  br i1 %.not2329.i, label %._crit_edge.i, label %.lr.ph31.preheader.i

.lr.ph31.preheader.i:                             ; preds = %.preheader.i
  %15 = sext i32 %.018.lcssa40.i to i64
  br label %.lr.ph31.i

.lr.ph31.i:                                       ; preds = %.lr.ph31.i, %.lr.ph31.preheader.i
  %indvars.iv33.i = phi i64 [ %15, %.lr.ph31.preheader.i ], [ %indvars.iv.next34.i, %.lr.ph31.i ]
  %16 = phi i8 [ %14, %.lr.ph31.preheader.i ], [ %20, %.lr.ph31.i ]
  %17 = sub nuw nsw i64 %indvars.iv33.i, %15
  %18 = getelementptr inbounds i8, ptr %0, i64 %17
  store i8 %16, ptr %18, align 1, !tbaa !4
  %indvars.iv.next34.i = add nuw nsw i64 %indvars.iv33.i, 1
  %19 = getelementptr inbounds nuw i8, ptr %0, i64 %indvars.iv.next34.i
  %20 = load i8, ptr %19, align 1, !tbaa !4
  %.not23.i = icmp eq i8 %20, 0
  br i1 %.not23.i, label %._crit_edge.loopexit.i, label %.lr.ph31.i, !llvm.loop !22

._crit_edge.loopexit.i:                           ; preds = %.lr.ph31.i
  %21 = trunc nsw i64 %indvars.iv.next34.i to i32
  br label %._crit_edge.i

._crit_edge.i:                                    ; preds = %._crit_edge.loopexit.i, %.preheader.i
  %.0.lcssa.i = phi i32 [ %.018.lcssa40.i, %.preheader.i ], [ %21, %._crit_edge.loopexit.i ]
  %22 = sub nsw i32 %.0.lcssa.i, %.018.lcssa40.i
  %23 = sext i32 %22 to i64
  %24 = getelementptr inbounds i8, ptr %0, i64 %23
  store i8 0, ptr %24, align 1, !tbaa !4
  br label %25

25:                                               ; preds = %.preheader24.i, %.critedge.i, %._crit_edge.i
  %26 = tail call i64 @strlen(ptr noundef nonnull dereferenceable(1) %0) #24
  %27 = trunc i64 %26 to i32
  %.013.i = add i32 %27, -1
  %28 = icmp sgt i32 %.013.i, -1
  br i1 %28, label %.lr.ph.preheader.i, label %_Z5rtrimPc.exit

.lr.ph.preheader.i:                               ; preds = %25
  %29 = zext nneg i32 %.013.i to i64
  br label %.lr.ph.i3

.lr.ph.i3:                                        ; preds = %.critedge2.i, %.lr.ph.preheader.i
  %indvars.iv.i4 = phi i64 [ %29, %.lr.ph.preheader.i ], [ %indvars.iv.next.i5, %.critedge2.i ]
  %30 = getelementptr inbounds nuw i8, ptr %0, i64 %indvars.iv.i4
  %31 = load i8, ptr %30, align 1, !tbaa !4
  switch i8 %31, label %_Z5rtrimPc.exit [
    i8 32, label %.critedge2.i
    i8 9, label %.critedge2.i
  ]

.critedge2.i:                                     ; preds = %.lr.ph.i3, %.lr.ph.i3
  store i8 0, ptr %30, align 1, !tbaa !4
  %indvars.iv.next.i5 = add nsw i64 %indvars.iv.i4, -1
  %32 = icmp sgt i64 %indvars.iv.i4, 0
  br i1 %32, label %.lr.ph.i3, label %_Z5rtrimPc.exit, !llvm.loop !7

_Z5rtrimPc.exit:                                  ; preds = %.lr.ph.i3, %.critedge2.i, %1, %25
  ret void
}